; Function Attrs: mustprogress uwtable
define void @_ZN2cv17AVIWriteContainer13putStreamByteEi(ptr noundef nonnull readonly align 8 captures(none) dereferenceable(136) %0, i32 noundef %1) local_unnamed_addr #4 align 2 {
  %3 = load ptr, ptr %0, align 8, !tbaa !153
  %4 = trunc i32 %1 to i8
  %5 = getelementptr inbounds nuw i8, ptr %3, i64 552
  %6 = load ptr, ptr %5, align 8, !tbaa !133
  %7 = getelementptr inbounds nuw i8, ptr %6, i64 1
  store ptr %7, ptr %5, align 8, !tbaa !133
  store i8 %4, ptr %6, align 1, !tbaa !27
  %8 = load ptr, ptr %5, align 8, !tbaa !133
  %9 = getelementptr inbounds nuw i8, ptr %3, i64 544
  %10 = load ptr, ptr %9, align 8, !tbaa !130
  %.not.i = icmp ult ptr %8, %10
  br i1 %.not.i, label %_ZN2cv9BitStream7putByteEi.exit, label %11

11:                                               ; preds = %2
  %12 = getelementptr inbounds nuw i8, ptr %3, i64 536
  %13 = load ptr, ptr %12, align 8, !tbaa !123
  %14 = ptrtoint ptr %8 to i64
  %15 = ptrtoint ptr %13 to i64
  %16 = sub i64 %14, %15
  %17 = icmp sgt i64 %16, 0
  br i1 %17, label %18, label %_ZN2cv9BitStream10writeBlockEv.exit.i

18:                                               ; preds = %11
  %19 = tail call noundef nonnull align 8 dereferenceable(8) ptr @_ZNSo5writeEPKcl(ptr noundef nonnull align 8 dereferenceable(569) %3, ptr noundef %13, i64 noundef %16)
  %.pre.i.i = load ptr, ptr %12, align 8, !tbaa !123
  br label %_ZN2cv9BitStream10writeBlockEv.exit.i

_ZN2cv9BitStream10writeBlockEv.exit.i:            ; preds = %18, %11
  %20 = phi ptr [ %.pre.i.i, %18 ], [ %13, %11 ]
  %21 = getelementptr inbounds nuw i8, ptr %3, i64 560
  %22 = load i64, ptr %21, align 8, !tbaa !134
  %23 = add i64 %22, %16
  store i64 %23, ptr %21, align 8, !tbaa !134
  store ptr %20, ptr %5, align 8, !tbaa !133
  br label %_ZN2cv9BitStream7putByteEi.exit

_ZN2cv9BitStream7putByteEi.exit:                  ; preds = %2, %_ZN2cv9BitStream10writeBlockEv.exit.i
  ret void
}